target datalayout = "e-m:e-p270:32:32-p271:32:32-p272:64:64-i64:64-i128:128-f80:128-n8:16:32:64-S128"
target triple = "x86_64-unknown-linux-gnu"

%struct.parse = type { ptr, ptr, i32, ptr, i64, i64, i32, ptr, [10 x i64], [10 x i64] }
%struct.re_guts = type { i32, ptr, i32, i32, ptr, ptr, i32, i64, i64, i64, i32, i32, i32, i32, ptr, ptr, i32, i64, i32, i64, [1 x i8] }

@nuls = internal global [10 x i8] zeroinitializer, align 1

; Function Attrs: nounwind uwtable
define internal i32 @seterr(ptr noundef %p, i32 noundef %e) #0 {
entry:
  %p.addr = alloca ptr, align 8
  %e.addr = alloca i32, align 4
  store ptr %p, ptr %p.addr, align 8
  store i32 %e, ptr %e.addr, align 4
  %0 = load ptr, ptr %p.addr, align 8
  %error = getelementptr inbounds %struct.parse, ptr %0, i32 0, i32 2
  %1 = load i32, ptr %error, align 8
  %cmp = icmp eq i32 %1, 0
  br i1 %cmp, label %if.then, label %if.end

if.then:                                          ; preds = %entry
  %2 = load i32, ptr %e.addr, align 4
  %3 = load ptr, ptr %p.addr, align 8
  %error1 = getelementptr inbounds %struct.parse, ptr %3, i32 0, i32 2
  store i32 %2, ptr %error1, align 8
  br label %if.end

if.end:                                           ; preds = %if.then, %entry
  %4 = load ptr, ptr %p.addr, align 8
  %next = getelementptr inbounds %struct.parse, ptr %4, i32 0, i32 0
  store ptr @nuls, ptr %next, align 8
  %5 = load ptr, ptr %p.addr, align 8
  %end = getelementptr inbounds %struct.parse, ptr %5, i32 0, i32 1
  store ptr @nuls, ptr %end, align 8
  ret i32 0
}

; Function Attrs: nounwind uwtable
define internal void @enlarge(ptr noundef %p, i64 noundef %size) #0 {
entry:
  %p.addr = alloca ptr, align 8
  %size.addr = alloca i64, align 8
  %sp = alloca ptr, align 8
  store ptr %p, ptr %p.addr, align 8
  store i64 %size, ptr %size.addr, align 8
  %0 = load ptr, ptr %p.addr, align 8
  %ssize = getelementptr inbounds %struct.parse, ptr %0, i32 0, i32 4
  %1 = load i64, ptr %ssize, align 8
  %2 = load i64, ptr %size.addr, align 8
  %cmp = icmp sge i64 %1, %2
  br i1 %cmp, label %if.then, label %if.end

if.then:                                          ; preds = %entry
  br label %return

if.end:                                           ; preds = %entry
  %3 = load i64, ptr %size.addr, align 8
  %cmp1 = icmp ugt i64 %3, 2305843009213693951
  br i1 %cmp1, label %if.then2, label %if.end3

if.then2:                                         ; preds = %if.end
  %4 = load ptr, ptr %p.addr, align 8
  %call = call i32 @seterr(ptr noundef %4, i32 noundef 12)
  br label %return

if.end3:                                          ; preds = %if.end
  %5 = load ptr, ptr %p.addr, align 8
  %strip = getelementptr inbounds %struct.parse, ptr %5, i32 0, i32 3
  %6 = load ptr, ptr %strip, align 8
  %7 = load i64, ptr %size.addr, align 8
  %mul = mul i64 %7, 8
  %call4 = call ptr @realloc(ptr noundef %6, i64 noundef %mul) #14
  store ptr %call4, ptr %sp, align 8
  %8 = load ptr, ptr %sp, align 8
  %cmp5 = icmp eq ptr %8, null
  br i1 %cmp5, label %if.then6, label %if.end8

if.then6:                                         ; preds = %if.end3
  %9 = load ptr, ptr %p.addr, align 8
  %call7 = call i32 @seterr(ptr noundef %9, i32 noundef 12)
  br label %return

if.end8:                                          ; preds = %if.end3
  %10 = load ptr, ptr %sp, align 8
  %11 = load ptr, ptr %p.addr, align 8
  %strip9 = getelementptr inbounds %struct.parse, ptr %11, i32 0, i32 3
  store ptr %10, ptr %strip9, align 8
  %12 = load i64, ptr %size.addr, align 8
  %13 = load ptr, ptr %p.addr, align 8
  %ssize10 = getelementptr inbounds %struct.parse, ptr %13, i32 0, i32 4
  store i64 %12, ptr %ssize10, align 8
  br label %return

return:                                           ; preds = %if.end8, %if.then6, %if.then2, %if.then
  ret void
}

; Function Attrs: nounwind uwtable
define internal void @doemit(ptr noundef %p, i64 noundef %op, i64 noundef %opnd) #0 {
entry:
  %p.addr = alloca ptr, align 8
  %op.addr = alloca i64, align 8
  %opnd.addr = alloca i64, align 8
  store ptr %p, ptr %p.addr, align 8
  store i64 %op, ptr %op.addr, align 8
  store i64 %opnd, ptr %opnd.addr, align 8
  %0 = load ptr, ptr %p.addr, align 8
  %error = getelementptr inbounds %struct.parse, ptr %0, i32 0, i32 2
  %1 = load i32, ptr %error, align 8
  %cmp = icmp ne i32 %1, 0
  br i1 %cmp, label %if.then, label %if.end

if.then:                                          ; preds = %entry
  br label %return

if.end:                                           ; preds = %entry
  %2 = load ptr, ptr %p.addr, align 8
  %slen = getelementptr inbounds %struct.parse, ptr %2, i32 0, i32 5
  %3 = load i64, ptr %slen, align 8
  %4 = load ptr, ptr %p.addr, align 8
  %ssize = getelementptr inbounds %struct.parse, ptr %4, i32 0, i32 4
  %5 = load i64, ptr %ssize, align 8
  %cmp1 = icmp sge i64 %3, %5
  br i1 %cmp1, label %if.then2, label %if.end4

if.then2:                                         ; preds = %if.end
  %6 = load ptr, ptr %p.addr, align 8
  %7 = load ptr, ptr %p.addr, align 8
  %ssize3 = getelementptr inbounds %struct.parse, ptr %7, i32 0, i32 4
  %8 = load i64, ptr %ssize3, align 8
  %add = add nsw i64 %8, 1
  %div = sdiv i64 %add, 2
  %mul = mul nsw i64 %div, 3
  call void @enlarge(ptr noundef %6, i64 noundef %mul)
  br label %if.end4

if.end4:                                          ; preds = %if.then2, %if.end
  %9 = load i64, ptr %op.addr, align 8
  %10 = load i64, ptr %opnd.addr, align 8
  %or = or i64 %9, %10
  %11 = load ptr, ptr %p.addr, align 8
  %strip = getelementptr inbounds %struct.parse, ptr %11, i32 0, i32 3
  %12 = load ptr, ptr %strip, align 8
  %13 = load ptr, ptr %p.addr, align 8
  %slen5 = getelementptr inbounds %struct.parse, ptr %13, i32 0, i32 5
  %14 = load i64, ptr %slen5, align 8
  %inc = add nsw i64 %14, 1
  store i64 %inc, ptr %slen5, align 8
  %arrayidx = getelementptr inbounds i64, ptr %12, i64 %14
  store i64 %or, ptr %arrayidx, align 8
  br label %return

return:                                           ; preds = %if.end4, %if.then
  ret void
}

; Function Attrs: nounwind uwtable
define internal void @bothcases(ptr noundef %p, i32 noundef %ch) #0 {
entry:
  %p.addr = alloca ptr, align 8
  %ch.addr = alloca i32, align 4
  %oldnext = alloca ptr, align 8
  %oldend = alloca ptr, align 8
  %bracket = alloca [3 x i8], align 1
  store ptr %p, ptr %p.addr, align 8
  store i32 %ch, ptr %ch.addr, align 4
  %0 = load ptr, ptr %p.addr, align 8
  %next = getelementptr inbounds %struct.parse, ptr %0, i32 0, i32 0
  %1 = load ptr, ptr %next, align 8
  store ptr %1, ptr %oldnext, align 8
  %2 = load ptr, ptr %p.addr, align 8
  %end = getelementptr inbounds %struct.parse, ptr %2, i32 0, i32 1
  %3 = load ptr, ptr %end, align 8
  store ptr %3, ptr %oldend, align 8
  %4 = load i32, ptr %ch.addr, align 4
  %conv = trunc i32 %4 to i8
  %conv1 = zext i8 %conv to i32
  store i32 %conv1, ptr %ch.addr, align 4
  %arraydecay = getelementptr inbounds [3 x i8], ptr %bracket, i64 0, i64 0
  %5 = load ptr, ptr %p.addr, align 8
  %next2 = getelementptr inbounds %struct.parse, ptr %5, i32 0, i32 0
  store ptr %arraydecay, ptr %next2, align 8
  %arraydecay3 = getelementptr inbounds [3 x i8], ptr %bracket, i64 0, i64 0
  %add.ptr = getelementptr inbounds i8, ptr %arraydecay3, i64 2
  %6 = load ptr, ptr %p.addr, align 8
  %end4 = getelementptr inbounds %struct.parse, ptr %6, i32 0, i32 1
  store ptr %add.ptr, ptr %end4, align 8
  %7 = load i32, ptr %ch.addr, align 4
  %conv5 = trunc i32 %7 to i8
  %arrayidx = getelementptr inbounds [3 x i8], ptr %bracket, i64 0, i64 0
  store i8 %conv5, ptr %arrayidx, align 1
  %arrayidx6 = getelementptr inbounds [3 x i8], ptr %bracket, i64 0, i64 1
  store i8 93, ptr %arrayidx6, align 1
  %arrayidx7 = getelementptr inbounds [3 x i8], ptr %bracket, i64 0, i64 2
  store i8 0, ptr %arrayidx7, align 1
  %8 = load ptr, ptr %p.addr, align 8
  call void @p_bracket(ptr noundef %8)
  %9 = load ptr, ptr %oldnext, align 8
  %10 = load ptr, ptr %p.addr, align 8
  %next8 = getelementptr inbounds %struct.parse, ptr %10, i32 0, i32 0
  store ptr %9, ptr %next8, align 8
  %11 = load ptr, ptr %oldend, align 8
  %12 = load ptr, ptr %p.addr, align 8
  %end9 = getelementptr inbounds %struct.parse, ptr %12, i32 0, i32 1
  store ptr %11, ptr %end9, align 8
  ret void
}

; Function Attrs: nounwind uwtable
define internal signext i8 @othercase(i32 noundef %ch) #0 {
entry:
  %retval = alloca i8, align 1
  %ch.addr = alloca i32, align 4
  store i32 %ch, ptr %ch.addr, align 4
  %0 = load i32, ptr %ch.addr, align 4
  %conv = trunc i32 %0 to i8
  %conv1 = zext i8 %conv to i32
  store i32 %conv1, ptr %ch.addr, align 4
  %call = call ptr @__ctype_b_loc() #15
  %1 = load ptr, ptr %call, align 8
  %2 = load i32, ptr %ch.addr, align 4
  %idxprom = sext i32 %2 to i64
  %arrayidx = getelementptr inbounds i16, ptr %1, i64 %idxprom
  %3 = load i16, ptr %arrayidx, align 2
  %conv2 = zext i16 %3 to i32
  %and = and i32 %conv2, 256
  %tobool = icmp ne i32 %and, 0
  br i1 %tobool, label %if.then, label %if.else

if.then:                                          ; preds = %entry
  %4 = load i32, ptr %ch.addr, align 4
  %call3 = call i32 @tolower(i32 noundef %4) #10
  %conv4 = trunc i32 %call3 to i8
  store i8 %conv4, ptr %retval, align 1
  br label %return

if.else:                                          ; preds = %entry
  %call5 = call ptr @__ctype_b_loc() #15
  %5 = load ptr, ptr %call5, align 8
  %6 = load i32, ptr %ch.addr, align 4
  %idxprom6 = sext i32 %6 to i64
  %arrayidx7 = getelementptr inbounds i16, ptr %5, i64 %idxprom6
  %7 = load i16, ptr %arrayidx7, align 2
  %conv8 = zext i16 %7 to i32
  %and9 = and i32 %conv8, 512
  %tobool10 = icmp ne i32 %and9, 0
  br i1 %tobool10, label %if.then11, label %if.else14

if.then11:                                        ; preds = %if.else
  %8 = load i32, ptr %ch.addr, align 4
  %call12 = call i32 @toupper(i32 noundef %8) #10
  %conv13 = trunc i32 %call12 to i8
  store i8 %conv13, ptr %retval, align 1
  br label %return

if.else14:                                        ; preds = %if.else
  %9 = load i32, ptr %ch.addr, align 4
  %conv15 = trunc i32 %9 to i8
  store i8 %conv15, ptr %retval, align 1
  br label %return

return:                                           ; preds = %if.else14, %if.then11, %if.then
  %10 = load i8, ptr %retval, align 1
  ret i8 %10
}

; Function Attrs: nounwind uwtable
define internal void @ordinary(ptr noundef %p, i32 noundef %ch) #0 {
entry:
  %p.addr = alloca ptr, align 8
  %ch.addr = alloca i32, align 4
  %cap = alloca ptr, align 8
  store ptr %p, ptr %p.addr, align 8
  store i32 %ch, ptr %ch.addr, align 4
  %0 = load ptr, ptr %p.addr, align 8
  %g = getelementptr inbounds %struct.parse, ptr %0, i32 0, i32 7
  %1 = load ptr, ptr %g, align 8
  %categories = getelementptr inbounds %struct.re_guts, ptr %1, i32 0, i32 14
  %2 = load ptr, ptr %categories, align 8
  store ptr %2, ptr %cap, align 8
  %3 = load ptr, ptr %p.addr, align 8
  %g1 = getelementptr inbounds %struct.parse, ptr %3, i32 0, i32 7
  %4 = load ptr, ptr %g1, align 8
  %cflags = getelementptr inbounds %struct.re_guts, ptr %4, i32 0, i32 6
  %5 = load i32, ptr %cflags, align 8
  %and = and i32 %5, 2
  %tobool = icmp ne i32 %and, 0
  br i1 %tobool, label %land.lhs.true, label %if.else

land.lhs.true:                                    ; preds = %entry
  %call = call ptr @__ctype_b_loc() #15
  %6 = load ptr, ptr %call, align 8
  %7 = load i32, ptr %ch.addr, align 4
  %conv = trunc i32 %7 to i8
  %conv2 = zext i8 %conv to i32
  %idxprom = sext i32 %conv2 to i64
  %arrayidx = getelementptr inbounds i16, ptr %6, i64 %idxprom
  %8 = load i16, ptr %arrayidx, align 2
  %conv3 = zext i16 %8 to i32
  %and4 = and i32 %conv3, 1024
  %tobool5 = icmp ne i32 %and4, 0
  br i1 %tobool5, label %land.lhs.true6, label %if.else

land.lhs.true6:                                   ; preds = %land.lhs.true
  %9 = load i32, ptr %ch.addr, align 4
  %call7 = call signext i8 @othercase(i32 noundef %9)
  %conv8 = sext i8 %call7 to i32
  %10 = load i32, ptr %ch.addr, align 4
  %cmp = icmp ne i32 %conv8, %10
  br i1 %cmp, label %if.then, label %if.else

if.then:                                          ; preds = %land.lhs.true6
  %11 = load ptr, ptr %p.addr, align 8
  %12 = load i32, ptr %ch.addr, align 4
  call void @bothcases(ptr noundef %11, i32 noundef %12)
  br label %if.end22

if.else:                                          ; preds = %land.lhs.true6, %land.lhs.true, %entry
  %13 = load ptr, ptr %p.addr, align 8
  %14 = load i32, ptr %ch.addr, align 4
  %conv10 = trunc i32 %14 to i8
  %conv11 = zext i8 %conv10 to i64
  call void @doemit(ptr noundef %13, i64 noundef 268435456, i64 noundef %conv11)
  %15 = load ptr, ptr %cap, align 8
  %16 = load i32, ptr %ch.addr, align 4
  %idxprom12 = sext i32 %16 to i64
  %arrayidx13 = getelementptr inbounds i8, ptr %15, i64 %idxprom12
  %17 = load i8, ptr %arrayidx13, align 1
  %conv14 = zext i8 %17 to i32
  %cmp15 = icmp eq i32 %conv14, 0
  br i1 %cmp15, label %if.then17, label %if.end

if.then17:                                        ; preds = %if.else
  %18 = load ptr, ptr %p.addr, align 8
  %g18 = getelementptr inbounds %struct.parse, ptr %18, i32 0, i32 7
  %19 = load ptr, ptr %g18, align 8
  %ncategories = getelementptr inbounds %struct.re_guts, ptr %19, i32 0, i32 13
  %20 = load i32, ptr %ncategories, align 4
  %inc = add nsw i32 %20, 1
  store i32 %inc, ptr %ncategories, align 4
  %conv19 = trunc i32 %20 to i8
  %21 = load ptr, ptr %cap, align 8
  %22 = load i32, ptr %ch.addr, align 4
  %idxprom20 = sext i32 %22 to i64
  %arrayidx21 = getelementptr inbounds i8, ptr %21, i64 %idxprom20
  store i8 %conv19, ptr %arrayidx21, align 1
  br label %if.end

if.end:                                           ; preds = %if.then17, %if.else
  br label %if.end22

if.end22:                                         ; preds = %if.end, %if.then
  ret void
}