; Function Attrs: nounwind uwtable
define internal fastcc void @ordinary(ptr noundef nonnull %p, i32 noundef %ch) unnamed_addr #0 {
entry:
  %bracket.i = alloca [3 x i8], align 1
  %g = getelementptr inbounds nuw i8, ptr %p, i64 56
  %0 = load ptr, ptr %g, align 8
  %categories = getelementptr inbounds nuw i8, ptr %0, i64 88
  %1 = load ptr, ptr %categories, align 8
  %cflags = getelementptr inbounds nuw i8, ptr %0, i64 40
  %2 = load i32, ptr %cflags, align 8
  %and = and i32 %2, 2
  %tobool.not = icmp eq i32 %and, 0
  br i1 %tobool.not, label %entry.if.else_crit_edge, label %land.lhs.true

entry.if.else_crit_edge:                          ; preds = %entry
  %.pre = and i32 %ch, 255
  br label %if.else

land.lhs.true:                                    ; preds = %entry
  %call = tail call ptr @__ctype_b_loc() #20
  %3 = load ptr, ptr %call, align 8
  %conv2 = and i32 %ch, 255
  %idxprom = zext nneg i32 %conv2 to i64
  %arrayidx = getelementptr inbounds nuw i16, ptr %3, i64 %idxprom
  %4 = load i16, ptr %arrayidx, align 2
  %5 = and i16 %4, 1024
  %tobool5.not = icmp eq i16 %5, 0
  br i1 %tobool5.not, label %if.else, label %land.lhs.true6

land.lhs.true6:                                   ; preds = %land.lhs.true
  %conv2.i = zext i16 %4 to i32
  %and.i = and i32 %conv2.i, 256
  %tobool.not.i = icmp eq i32 %and.i, 0
  br i1 %tobool.not.i, label %if.else.i, label %if.then.i

if.then.i:                                        ; preds = %land.lhs.true6
  %call3.i = tail call i32 @tolower(i32 noundef %conv2) #15
  br label %othercase.exit

if.else.i:                                        ; preds = %land.lhs.true6
  %and9.i = and i32 %conv2.i, 512
  %tobool10.not.i = icmp eq i32 %and9.i, 0
  br i1 %tobool10.not.i, label %othercase.exit, label %if.then11.i

if.then11.i:                                      ; preds = %if.else.i
  %call12.i = tail call i32 @toupper(i32 noundef %conv2) #15
  br label %othercase.exit

othercase.exit:                                   ; preds = %if.then.i, %if.else.i, %if.then11.i
  %retval.0.in.i = phi i32 [ %call3.i, %if.then.i ], [ %call12.i, %if.then11.i ], [ %ch, %if.else.i ]
  %sext = shl i32 %retval.0.in.i, 24
  %conv8 = ashr exact i32 %sext, 24
  %cmp.not = icmp eq i32 %ch, %conv8
  br i1 %cmp.not, label %if.else, label %if.then

if.then:                                          ; preds = %othercase.exit
  call void @llvm.lifetime.start.p0(i64 3, ptr nonnull %bracket.i)
  %6 = load ptr, ptr %p, align 8
  %end.i = getelementptr inbounds nuw i8, ptr %p, i64 8
  %7 = load ptr, ptr %end.i, align 8
  %conv.i = trunc i32 %ch to i8
  store ptr %bracket.i, ptr %p, align 8
  %add.ptr.i = getelementptr inbounds nuw i8, ptr %bracket.i, i64 2
  store ptr %add.ptr.i, ptr %end.i, align 8
  store i8 %conv.i, ptr %bracket.i, align 1
  %arrayidx6.i = getelementptr inbounds nuw i8, ptr %bracket.i, i64 1
  store i8 93, ptr %arrayidx6.i, align 1
  store i8 0, ptr %add.ptr.i, align 1
  call fastcc void @p_bracket(ptr noundef nonnull %p) #21
  store ptr %6, ptr %p, align 8
  store ptr %7, ptr %end.i, align 8
  call void @llvm.lifetime.end.p0(i64 3, ptr nonnull %bracket.i)
  br label %if.end22

if.else:                                          ; preds = %entry.if.else_crit_edge, %othercase.exit, %land.lhs.true
  %.pre-phi = phi i32 [ %.pre, %entry.if.else_crit_edge ], [ %conv2, %othercase.exit ], [ %conv2, %land.lhs.true ]
  %error.i = getelementptr inbounds nuw i8, ptr %p, i64 16
  %8 = load i32, ptr %error.i, align 8
  %cmp.not.i = icmp eq i32 %8, 0
  br i1 %cmp.not.i, label %if.end.i, label %doemit.exit

if.end.i:                                         ; preds = %if.else
  %slen.i = getelementptr inbounds nuw i8, ptr %p, i64 40
  %9 = load i64, ptr %slen.i, align 8
  %ssize.i = getelementptr inbounds nuw i8, ptr %p, i64 32
  %10 = load i64, ptr %ssize.i, align 8
  %cmp1.not.i = icmp slt i64 %9, %10
  br i1 %cmp1.not.i, label %if.end4.i, label %if.then2.i

if.then2.i:                                       ; preds = %if.end.i
  %add.i = add nsw i64 %10, 1
  %div.i = sdiv i64 %add.i, 2
  %mul.i = mul nsw i64 %div.i, 3
  %cmp.not.i.i = icmp slt i64 %10, %mul.i
  br i1 %cmp.not.i.i, label %if.end.i.i, label %if.end4.i

if.end.i.i:                                       ; preds = %if.then2.i
  %cmp1.i.i = icmp ugt i64 %mul.i, 2305843009213693951
  br i1 %cmp1.i.i, label %seterr.exit.i.i, label %if.end3.i.i

seterr.exit.i.i:                                  ; preds = %if.end.i.i
  store i32 12, ptr %error.i, align 8
  store ptr @nuls, ptr %p, align 8
  %end.i.i.i = getelementptr inbounds nuw i8, ptr %p, i64 8
  store ptr @nuls, ptr %end.i.i.i, align 8
  br label %if.end4.i

if.end3.i.i:                                      ; preds = %if.end.i.i
  %strip.i.i = getelementptr inbounds nuw i8, ptr %p, i64 24
  %11 = load ptr, ptr %strip.i.i, align 8
  %mul.i.i = mul i64 %div.i, 24
  %call4.i.i = tail call ptr @realloc(ptr noundef %11, i64 noundef %mul.i.i) #19
  %cmp5.i.i = icmp eq ptr %call4.i.i, null
  br i1 %cmp5.i.i, label %if.then6.i.i, label %if.end8.i.i

if.then6.i.i:                                     ; preds = %if.end3.i.i
  %12 = load i32, ptr %error.i, align 8
  %cmp.i11.i.i = icmp eq i32 %12, 0
  br i1 %cmp.i11.i.i, label %if.then.i13.i.i, label %seterr.exit14.i.i

if.then.i13.i.i:                                  ; preds = %if.then6.i.i
  store i32 12, ptr %error.i, align 8
  br label %seterr.exit14.i.i

seterr.exit14.i.i:                                ; preds = %if.then.i13.i.i, %if.then6.i.i
  store ptr @nuls, ptr %p, align 8
  %end.i12.i.i = getelementptr inbounds nuw i8, ptr %p, i64 8
  store ptr @nuls, ptr %end.i12.i.i, align 8
  br label %if.end4.i

if.end8.i.i:                                      ; preds = %if.end3.i.i
  store ptr %call4.i.i, ptr %strip.i.i, align 8
  store i64 %mul.i, ptr %ssize.i, align 8
  br label %if.end4.i

if.end4.i:                                        ; preds = %if.end8.i.i, %seterr.exit14.i.i, %seterr.exit.i.i, %if.then2.i, %if.end.i
  %13 = or disjoint i32 %.pre-phi, 268435456
  %or.i = zext nneg i32 %13 to i64
  %strip.i = getelementptr inbounds nuw i8, ptr %p, i64 24
  %14 = load ptr, ptr %strip.i, align 8
  %15 = load i64, ptr %slen.i, align 8
  %inc.i = add nsw i64 %15, 1
  store i64 %inc.i, ptr %slen.i, align 8
  %arrayidx.i12 = getelementptr inbounds i64, ptr %14, i64 %15
  store i64 %or.i, ptr %arrayidx.i12, align 8
  br label %doemit.exit

doemit.exit:                                      ; preds = %if.else, %if.end4.i
  %idxprom12 = sext i32 %ch to i64
  %arrayidx13 = getelementptr inbounds i8, ptr %1, i64 %idxprom12
  %16 = load i8, ptr %arrayidx13, align 1
  %cmp15 = icmp eq i8 %16, 0
  br i1 %cmp15, label %if.then17, label %if.end22

if.then17:                                        ; preds = %doemit.exit
  %17 = load ptr, ptr %g, align 8
  %ncategories = getelementptr inbounds nuw i8, ptr %17, i64 84
  %18 = load i32, ptr %ncategories, align 4
  %inc = add nsw i32 %18, 1
  store i32 %inc, ptr %ncategories, align 4
  %conv19 = trunc i32 %18 to i8
  store i8 %conv19, ptr %arrayidx13, align 1
  br label %if.end22

if.end22:                                         ; preds = %doemit.exit, %if.then17, %if.then
  ret void
}